target datalayout = "e-m:e-p270:32:32-p271:32:32-p272:64:64-i64:64-i128:128-f80:128-n8:16:32:64-S128"
target triple = "x86_64-unknown-linux-gnu"

%struct.UText = type { i32, i32, i32, i32, i64, i32, i32, i64, i32, i32, ptr, ptr, ptr, ptr, ptr, ptr, ptr, ptr, i64, i32, i32, i64, i32, i32 }

; Function Attrs: mustprogress nounwind uwtable
define internal noundef signext i8 @_ZL9U_FAILURE10UErrorCode(i32 noundef %code) #1 {
entry:
  %code.addr = alloca i32, align 4
  store i32 %code, ptr %code.addr, align 4
  %0 = load i32, ptr %code.addr, align 4
  %cmp = icmp sgt i32 %0, 0
  %conv = zext i1 %cmp to i8
  ret i8 %conv
}

; Function Attrs: mustprogress uwtable
define ptr @utext_openReplaceable_75(ptr noundef %ut, ptr noundef %rep, ptr noundef %status) #0 {
entry:
  %retval = alloca ptr, align 8
  %ut.addr = alloca ptr, align 8
  %rep.addr = alloca ptr, align 8
  %status.addr = alloca ptr, align 8
  store ptr %ut, ptr %ut.addr, align 8
  store ptr %rep, ptr %rep.addr, align 8
  store ptr %status, ptr %status.addr, align 8
  %0 = load ptr, ptr %status.addr, align 8
  %1 = load i32, ptr %0, align 4
  %call = call noundef signext i8 @_ZL9U_FAILURE10UErrorCode(i32 noundef %1)
  %tobool = icmp ne i8 %call, 0
  br i1 %tobool, label %if.then, label %if.end

if.then:                                          ; preds = %entry
  store ptr null, ptr %retval, align 8
  br label %return

if.end:                                           ; preds = %entry
  %2 = load ptr, ptr %rep.addr, align 8
  %cmp = icmp eq ptr %2, null
  br i1 %cmp, label %if.then1, label %if.end2

if.then1:                                         ; preds = %if.end
  %3 = load ptr, ptr %status.addr, align 8
  store i32 1, ptr %3, align 4
  store ptr null, ptr %retval, align 8
  br label %return

if.end2:                                          ; preds = %if.end
  %4 = load ptr, ptr %ut.addr, align 8
  %5 = load ptr, ptr %status.addr, align 8
  %call3 = call ptr @utext_setup_75(ptr noundef %4, i32 noundef 22, ptr noundef %5)
  store ptr %call3, ptr %ut.addr, align 8
  %6 = load ptr, ptr %status.addr, align 8
  %7 = load i32, ptr %6, align 4
  %call4 = call noundef signext i8 @_ZL9U_FAILURE10UErrorCode(i32 noundef %7)
  %tobool5 = icmp ne i8 %call4, 0
  br i1 %tobool5, label %if.then6, label %if.end7

if.then6:                                         ; preds = %if.end2
  %8 = load ptr, ptr %ut.addr, align 8
  store ptr %8, ptr %retval, align 8
  br label %return

if.end7:                                          ; preds = %if.end2
  %9 = load ptr, ptr %ut.addr, align 8
  %providerProperties = getelementptr inbounds %struct.UText, ptr %9, i32 0, i32 2
  store i32 8, ptr %providerProperties, align 8
  %10 = load ptr, ptr %rep.addr, align 8
  %vtable = load ptr, ptr %10, align 8
  %vfn = getelementptr inbounds ptr, ptr %vtable, i64 6
  %11 = load ptr, ptr %vfn, align 8
  %call8 = call noundef signext i8 %11(ptr noundef nonnull align 8 dereferenceable(8) %10)
  %tobool9 = icmp ne i8 %call8, 0
  br i1 %tobool9, label %if.then10, label %if.end12

if.then10:                                        ; preds = %if.end7
  %12 = load ptr, ptr %ut.addr, align 8
  %providerProperties11 = getelementptr inbounds %struct.UText, ptr %12, i32 0, i32 2
  %13 = load i32, ptr %providerProperties11, align 8
  %or = or i32 %13, 16
  store i32 %or, ptr %providerProperties11, align 8
  br label %if.end12

if.end12:                                         ; preds = %if.then10, %if.end7
  %14 = load ptr, ptr %ut.addr, align 8
  %pFuncs = getelementptr inbounds %struct.UText, ptr %14, i32 0, i32 11
  store ptr @_ZL8repFuncs, ptr %pFuncs, align 8
  %15 = load ptr, ptr %rep.addr, align 8
  %16 = load ptr, ptr %ut.addr, align 8
  %context = getelementptr inbounds %struct.UText, ptr %16, i32 0, i32 13
  store ptr %15, ptr %context, align 8
  %17 = load ptr, ptr %ut.addr, align 8
  store ptr %17, ptr %retval, align 8
  br label %return

return:                                           ; preds = %if.end12, %if.then6, %if.then1, %if.then
  %18 = load ptr, ptr %retval, align 8
  ret ptr %18
}