; Function Attrs: mustprogress uwtable
define ptr @utext_openReplaceable_75(ptr noundef %ut, ptr noundef %rep, ptr nocapture noundef %status) local_unnamed_addr #0 {
entry:
  %0 = load i32, ptr %status, align 4
  %cmp.i = icmp slt i32 %0, 1
  br i1 %cmp.i, label %if.end, label %return

if.end:                                           ; preds = %entry
  %cmp = icmp eq ptr %rep, null
  br i1 %cmp, label %if.then1, label %if.end2

if.then1:                                         ; preds = %if.end
  store i32 1, ptr %status, align 4
  br label %return

if.end2:                                          ; preds = %if.end
  %call3 = tail call ptr @utext_setup_75(ptr noundef %ut, i32 noundef 22, ptr noundef nonnull %status)
  %1 = load i32, ptr %status, align 4
  %cmp.i12 = icmp slt i32 %1, 1
  br i1 %cmp.i12, label %if.end7, label %return

if.end7:                                          ; preds = %if.end2
  %providerProperties = getelementptr inbounds i8, ptr %call3, i64 8
  store i32 8, ptr %providerProperties, align 8
  %vtable = load ptr, ptr %rep, align 8
  %vfn = getelementptr inbounds i8, ptr %vtable, i64 48
  %2 = load ptr, ptr %vfn, align 8
  %call8 = tail call noundef signext i8 %2(ptr noundef nonnull align 8 dereferenceable(8) %rep)
  %tobool9.not = icmp eq i8 %call8, 0
  br i1 %tobool9.not, label %if.end12, label %if.then10

if.then10:                                        ; preds = %if.end7
  %3 = load i32, ptr %providerProperties, align 8
  %or = or i32 %3, 16
  store i32 %or, ptr %providerProperties, align 8
  br label %if.end12

if.end12:                                         ; preds = %if.then10, %if.end7
  %pFuncs = getelementptr inbounds i8, ptr %call3, i64 56
  store ptr @_ZL8repFuncs, ptr %pFuncs, align 8
  %context = getelementptr inbounds i8, ptr %call3, i64 72
  store ptr %rep, ptr %context, align 8
  br label %return

return:                                           ; preds = %if.end2, %entry, %if.end12, %if.then1
  %retval.0 = phi ptr [ null, %if.then1 ], [ %call3, %if.end12 ], [ null, %entry ], [ %call3, %if.end2 ]
  ret ptr %retval.0
}